target datalayout = "e-m:e-p270:32:32-p271:32:32-p272:64:64-i64:64-i128:128-f80:128-n8:16:32:64-S128"
target triple = "x86_64-pc-linux-gnu"

%struct.stbtt__csctx = type { i32, i32, float, float, float, float, i32, i32, i32, i32, ptr, i32 }

; Function Attrs: nounwind uwtable
define i32 @stbtt__GetGlyphInfoT2(ptr noundef %0, i32 noundef %1, ptr noundef %2, ptr noundef %3, ptr noundef %4, ptr noundef %5) #0 {
  %7 = alloca ptr, align 8
  %8 = alloca i32, align 4
  %9 = alloca ptr, align 8
  %10 = alloca ptr, align 8
  %11 = alloca ptr, align 8
  %12 = alloca ptr, align 8
  %13 = alloca %struct.stbtt__csctx, align 8
  %14 = alloca i32, align 4
  store ptr %0, ptr %7, align 8, !tbaa !28
  store i32 %1, ptr %8, align 4, !tbaa !14
  store ptr %2, ptr %9, align 8, !tbaa !22
  store ptr %3, ptr %10, align 8, !tbaa !22
  store ptr %4, ptr %11, align 8, !tbaa !22
  store ptr %5, ptr %12, align 8, !tbaa !22
  call void @llvm.lifetime.start.p0(i64 56, ptr %13) #8
  call void @llvm.memset.p0.i64(ptr align 8 %13, i8 0, i64 56, i1 false)
  %15 = getelementptr inbounds { i32, i32, float, float, float, float, i32, i32, i32, i32, ptr, i32, [4 x i8] }, ptr %13, i32 0, i32 0
  store i32 1, ptr %15, align 8
  call void @llvm.lifetime.start.p0(i64 4, ptr %14) #8
  %16 = load ptr, ptr %7, align 8, !tbaa !28
  %17 = load i32, ptr %8, align 4, !tbaa !14
  %18 = call i32 @stbtt__run_charstring(ptr noundef %16, i32 noundef %17, ptr noundef %13)
  store i32 %18, ptr %14, align 4, !tbaa !14
  %19 = load ptr, ptr %9, align 8, !tbaa !22
  %20 = icmp ne ptr %19, null
  br i1 %20, label %21, label %31

21:                                               ; preds = %6
  %22 = load i32, ptr %14, align 4, !tbaa !14
  %23 = icmp ne i32 %22, 0
  br i1 %23, label %24, label %27

24:                                               ; preds = %21
  %25 = getelementptr inbounds nuw %struct.stbtt__csctx, ptr %13, i32 0, i32 6
  %26 = load i32, ptr %25, align 8, !tbaa !56
  br label %28

27:                                               ; preds = %21
  br label %28

28:                                               ; preds = %27, %24
  %29 = phi i32 [ %26, %24 ], [ 0, %27 ]
  %30 = load ptr, ptr %9, align 8, !tbaa !22
  store i32 %29, ptr %30, align 4, !tbaa !14
  br label %31

31:                                               ; preds = %28, %6
  %32 = load ptr, ptr %10, align 8, !tbaa !22
  %33 = icmp ne ptr %32, null
  br i1 %33, label %34, label %44

34:                                               ; preds = %31
  %35 = load i32, ptr %14, align 4, !tbaa !14
  %36 = icmp ne i32 %35, 0
  br i1 %36, label %37, label %40

37:                                               ; preds = %34
  %38 = getelementptr inbounds nuw %struct.stbtt__csctx, ptr %13, i32 0, i32 8
  %39 = load i32, ptr %38, align 8, !tbaa !59
  br label %41

40:                                               ; preds = %34
  br label %41

41:                                               ; preds = %40, %37
  %42 = phi i32 [ %39, %37 ], [ 0, %40 ]
  %43 = load ptr, ptr %10, align 8, !tbaa !22
  store i32 %42, ptr %43, align 4, !tbaa !14
  br label %44

44:                                               ; preds = %41, %31
  %45 = load ptr, ptr %11, align 8, !tbaa !22
  %46 = icmp ne ptr %45, null
  br i1 %46, label %47, label %57

47:                                               ; preds = %44
  %48 = load i32, ptr %14, align 4, !tbaa !14
  %49 = icmp ne i32 %48, 0
  br i1 %49, label %50, label %53

50:                                               ; preds = %47
  %51 = getelementptr inbounds nuw %struct.stbtt__csctx, ptr %13, i32 0, i32 7
  %52 = load i32, ptr %51, align 4, !tbaa !60
  br label %54

53:                                               ; preds = %47
  br label %54

54:                                               ; preds = %53, %50
  %55 = phi i32 [ %52, %50 ], [ 0, %53 ]
  %56 = load ptr, ptr %11, align 8, !tbaa !22
  store i32 %55, ptr %56, align 4, !tbaa !14
  br label %57

57:                                               ; preds = %54, %44
  %58 = load ptr, ptr %12, align 8, !tbaa !22
  %59 = icmp ne ptr %58, null
  br i1 %59, label %60, label %70

60:                                               ; preds = %57
  %61 = load i32, ptr %14, align 4, !tbaa !14
  %62 = icmp ne i32 %61, 0
  br i1 %62, label %63, label %66

63:                                               ; preds = %60
  %64 = getelementptr inbounds nuw %struct.stbtt__csctx, ptr %13, i32 0, i32 9
  %65 = load i32, ptr %64, align 4, !tbaa !61
  br label %67

66:                                               ; preds = %60
  br label %67

67:                                               ; preds = %66, %63
  %68 = phi i32 [ %65, %63 ], [ 0, %66 ]
  %69 = load ptr, ptr %12, align 8, !tbaa !22
  store i32 %68, ptr %69, align 4, !tbaa !14
  br label %70

70:                                               ; preds = %67, %57
  %71 = load i32, ptr %14, align 4, !tbaa !14
  %72 = icmp ne i32 %71, 0
  br i1 %72, label %73, label %76

73:                                               ; preds = %70
  %74 = getelementptr inbounds nuw %struct.stbtt__csctx, ptr %13, i32 0, i32 11
  %75 = load i32, ptr %74, align 8, !tbaa !62
  br label %77

76:                                               ; preds = %70
  br label %77

77:                                               ; preds = %76, %73
  %78 = phi i32 [ %75, %73 ], [ 0, %76 ]
  call void @llvm.lifetime.end.p0(i64 4, ptr %14) #8
  call void @llvm.lifetime.end.p0(i64 56, ptr %13) #8
  ret i32 %78
}