; Function Attrs: nofree norecurse nosync nounwind memory(readwrite, inaccessiblemem: none) uwtable
define i32 @stbtt__GetGlyphInfoT2(ptr noundef readonly captures(none) %0, i32 noundef %1, ptr noundef writeonly captures(address_is_null) %2, ptr noundef writeonly captures(address_is_null) %3, ptr noundef writeonly captures(address_is_null) %4, ptr noundef writeonly captures(address_is_null) %5) local_unnamed_addr #13 {
  %7 = alloca %struct.stbtt__csctx, align 8
  call void @llvm.lifetime.start.p0(i64 56, ptr nonnull %7) #32
  call void @llvm.memset.p0.i64(ptr noundef nonnull align 8 dereferenceable(56) %7, i8 0, i64 56, i1 false)
  store i32 1, ptr %7, align 8
  %8 = call i32 @stbtt__run_charstring(ptr noundef %0, i32 noundef %1, ptr noundef nonnull %7)
  %.not = icmp eq ptr %2, null
  br i1 %.not, label %13, label %9

9:                                                ; preds = %6
  %.not17 = icmp eq i32 %8, 0
  %10 = getelementptr inbounds nuw i8, ptr %7, i64 24
  %11 = load i32, ptr %10, align 8
  %12 = select i1 %.not17, i32 0, i32 %11
  store i32 %12, ptr %2, align 4, !tbaa !17
  br label %13

13:                                               ; preds = %9, %6
  %.not18 = icmp eq ptr %3, null
  br i1 %.not18, label %18, label %14

14:                                               ; preds = %13
  %.not19 = icmp eq i32 %8, 0
  %15 = getelementptr inbounds nuw i8, ptr %7, i64 32
  %16 = load i32, ptr %15, align 8
  %17 = select i1 %.not19, i32 0, i32 %16
  store i32 %17, ptr %3, align 4, !tbaa !17
  br label %18

18:                                               ; preds = %14, %13
  %.not20 = icmp eq ptr %4, null
  br i1 %.not20, label %23, label %19

19:                                               ; preds = %18
  %.not21 = icmp eq i32 %8, 0
  %20 = getelementptr inbounds nuw i8, ptr %7, i64 28
  %21 = load i32, ptr %20, align 4
  %22 = select i1 %.not21, i32 0, i32 %21
  store i32 %22, ptr %4, align 4, !tbaa !17
  br label %23

23:                                               ; preds = %19, %18
  %.not22 = icmp eq ptr %5, null
  br i1 %.not22, label %28, label %24

24:                                               ; preds = %23
  %.not23 = icmp eq i32 %8, 0
  %25 = getelementptr inbounds nuw i8, ptr %7, i64 36
  %26 = load i32, ptr %25, align 4
  %27 = select i1 %.not23, i32 0, i32 %26
  store i32 %27, ptr %5, align 4, !tbaa !17
  br label %28

28:                                               ; preds = %24, %23
  %.not24 = icmp eq i32 %8, 0
  %29 = getelementptr inbounds nuw i8, ptr %7, i64 48
  %30 = load i32, ptr %29, align 8
  %31 = select i1 %.not24, i32 0, i32 %30
  call void @llvm.lifetime.end.p0(i64 56, ptr nonnull %7) #32
  ret i32 %31
}